; Function Attrs: mustprogress uwtable
define noundef ptr @_ZN32pxrInternal_v0_24__pxrReserved__27Sdf_PathGetDebuggerPathTextERKNS_7SdfPathE(ptr nocapture noundef nonnull readonly align 4 dereferenceable(8) %0) local_unnamed_addr #0 personality ptr @__gxx_personality_v0 {
  %2 = load i32, ptr %0, align 4
  %.not = icmp eq i32 %2, 0
  br i1 %.not, label %23, label %3

3:                                                ; preds = %1
  %4 = and i32 %2, 255
  %5 = lshr i32 %2, 8
  %6 = zext nneg i32 %4 to i64
  %7 = getelementptr inbounds [257 x ptr], ptr @_ZN32pxrInternal_v0_24__pxrReserved__8Sdf_PoolINS_15Sdf_PathPrimTagELj24ELj8ELj16384EE13_regionStartsE, i64 0, i64 %6
  %8 = load ptr, ptr %7, align 8
  %9 = mul nuw nsw i32 %5, 24
  %10 = zext nneg i32 %9 to i64
  %11 = getelementptr inbounds i8, ptr %8, i64 %10
  %12 = getelementptr inbounds nuw i8, ptr %0, i64 4
  %13 = load i32, ptr %12, align 4
  %14 = and i32 %13, 255
  %15 = lshr i32 %13, 8
  %16 = zext nneg i32 %14 to i64
  %17 = getelementptr inbounds [257 x ptr], ptr @_ZN32pxrInternal_v0_24__pxrReserved__8Sdf_PoolINS_15Sdf_PathPropTagELj24ELj8ELj16384EE13_regionStartsE, i64 0, i64 %16
  %18 = load ptr, ptr %17, align 8
  %19 = mul nuw nsw i32 %15, 24
  %20 = zext nneg i32 %19 to i64
  %21 = getelementptr inbounds i8, ptr %18, i64 %20
  %22 = tail call noundef ptr @_ZN32pxrInternal_v0_24__pxrReserved__12Sdf_PathNode12GetDebugTextEPKS0_S2_(ptr noundef %11, ptr noundef %21)
  br label %23

23:                                               ; preds = %1, %3
  %.0 = phi ptr [ %22, %3 ], [ @.str.33, %1 ]
  ret ptr %.0
}